target datalayout = "e-m:e-p270:32:32-p271:32:32-p272:64:64-i64:64-i128:128-f80:128-n8:16:32:64-S128"
target triple = "x86_64-pc-linux-gnu"

@.str.7 = private unnamed_addr constant [13 x i8] c"ZGC Globals:\00", align 1
@.str.8 = private unnamed_addr constant [28 x i8] c" GlobalPhase:       %u (%s)\00", align 1
@XGlobalPhase = external global i32, align 4
@.str.9 = private unnamed_addr constant [23 x i8] c" GlobalSeqNum:      %u\00", align 1
@XGlobalSeqNum = external global i32, align 4
@.str.10 = private unnamed_addr constant [37 x i8] c" Offset Max:        %lu%s (0x%016lx)\00", align 1
@XAddressOffsetMax = external global i64, align 8
@.str.11 = private unnamed_addr constant [25 x i8] c" Page Size Small:   %luM\00", align 1
@.str.12 = private unnamed_addr constant [25 x i8] c" Page Size Medium:  %luM\00", align 1
@XPageSizeMedium = external global i64, align 8
@.str.13 = private unnamed_addr constant [19 x i8] c"ZGC Metadata Bits:\00", align 1
@.str.14 = private unnamed_addr constant [29 x i8] c" Good:              0x%016lx\00", align 1
@XAddressGoodMask = external global i64, align 8
@.str.15 = private unnamed_addr constant [29 x i8] c" Bad:               0x%016lx\00", align 1
@XAddressBadMask = external global i64, align 8
@.str.16 = private unnamed_addr constant [29 x i8] c" WeakBad:           0x%016lx\00", align 1
@XAddressWeakBadMask = external global i64, align 8
@.str.17 = private unnamed_addr constant [29 x i8] c" Marked:            0x%016lx\00", align 1
@XAddressMetadataMarked = external global i64, align 8
@.str.18 = private unnamed_addr constant [29 x i8] c" Remapped:          0x%016lx\00", align 1
@XAddressMetadataRemapped = external global i64, align 8
@.str.26 = private unnamed_addr constant [2 x i8] c"G\00", align 1
@.str.27 = private unnamed_addr constant [2 x i8] c"M\00", align 1
@.str.28 = private unnamed_addr constant [2 x i8] c"K\00", align 1
@.str.29 = private unnamed_addr constant [2 x i8] c"B\00", align 1

; Function Attrs: mustprogress nounwind uwtable
define linkonce_odr hidden noundef ptr @_Z24exact_unit_for_byte_sizem(i64 noundef %0) #1 comdat {
  %2 = alloca ptr, align 8
  %3 = alloca i64, align 8
  store i64 %0, ptr %3, align 8
  %4 = load i64, ptr %3, align 8
  %5 = icmp uge i64 %4, 1073741824
  br i1 %5, label %6, label %11

6:                                                ; preds = %1
  %7 = load i64, ptr %3, align 8
  %8 = urem i64 %7, 1073741824
  %9 = icmp eq i64 %8, 0
  br i1 %9, label %10, label %11

10:                                               ; preds = %6
  store ptr @.str.26, ptr %2, align 8
  br label %28

11:                                               ; preds = %6, %1
  %12 = load i64, ptr %3, align 8
  %13 = icmp uge i64 %12, 1048576
  br i1 %13, label %14, label %19

14:                                               ; preds = %11
  %15 = load i64, ptr %3, align 8
  %16 = urem i64 %15, 1048576
  %17 = icmp eq i64 %16, 0
  br i1 %17, label %18, label %19

18:                                               ; preds = %14
  store ptr @.str.27, ptr %2, align 8
  br label %28

19:                                               ; preds = %14, %11
  %20 = load i64, ptr %3, align 8
  %21 = icmp uge i64 %20, 1024
  br i1 %21, label %22, label %27

22:                                               ; preds = %19
  %23 = load i64, ptr %3, align 8
  %24 = urem i64 %23, 1024
  %25 = icmp eq i64 %24, 0
  br i1 %25, label %26, label %27

26:                                               ; preds = %22
  store ptr @.str.28, ptr %2, align 8
  br label %28

27:                                               ; preds = %22, %19
  store ptr @.str.29, ptr %2, align 8
  br label %28

28:                                               ; preds = %27, %26, %18, %10
  %29 = load ptr, ptr %2, align 8
  ret ptr %29
}

; Function Attrs: mustprogress nounwind uwtable
define linkonce_odr hidden noundef i64 @_Z23byte_size_in_exact_unitm(i64 noundef %0) #1 comdat {
  %2 = alloca i64, align 8
  %3 = alloca i64, align 8
  store i64 %0, ptr %3, align 8
  %4 = load i64, ptr %3, align 8
  %5 = icmp uge i64 %4, 1073741824
  br i1 %5, label %6, label %13

6:                                                ; preds = %1
  %7 = load i64, ptr %3, align 8
  %8 = urem i64 %7, 1073741824
  %9 = icmp eq i64 %8, 0
  br i1 %9, label %10, label %13

10:                                               ; preds = %6
  %11 = load i64, ptr %3, align 8
  %12 = udiv i64 %11, 1073741824
  store i64 %12, ptr %2, align 8
  br label %35

13:                                               ; preds = %6, %1
  %14 = load i64, ptr %3, align 8
  %15 = icmp uge i64 %14, 1048576
  br i1 %15, label %16, label %23

16:                                               ; preds = %13
  %17 = load i64, ptr %3, align 8
  %18 = urem i64 %17, 1048576
  %19 = icmp eq i64 %18, 0
  br i1 %19, label %20, label %23

20:                                               ; preds = %16
  %21 = load i64, ptr %3, align 8
  %22 = udiv i64 %21, 1048576
  store i64 %22, ptr %2, align 8
  br label %35

23:                                               ; preds = %16, %13
  %24 = load i64, ptr %3, align 8
  %25 = icmp uge i64 %24, 1024
  br i1 %25, label %26, label %33

26:                                               ; preds = %23
  %27 = load i64, ptr %3, align 8
  %28 = urem i64 %27, 1024
  %29 = icmp eq i64 %28, 0
  br i1 %29, label %30, label %33

30:                                               ; preds = %26
  %31 = load i64, ptr %3, align 8
  %32 = udiv i64 %31, 1024
  store i64 %32, ptr %2, align 8
  br label %35

33:                                               ; preds = %26, %23
  %34 = load i64, ptr %3, align 8
  store i64 %34, ptr %2, align 8
  br label %35

35:                                               ; preds = %33, %30, %20, %10
  %36 = load i64, ptr %2, align 8
  ret i64 %36
}

; Function Attrs: mustprogress nounwind uwtable
define hidden void @_ZNK14XCollectedHeap14print_on_errorEP12outputStream(ptr noundef nonnull align 64 dereferenceable(4432) %0, ptr noundef %1) unnamed_addr #1 align 2 {
  %3 = alloca ptr, align 8
  %4 = alloca ptr, align 8
  store ptr %0, ptr %3, align 8
  store ptr %1, ptr %4, align 8
  %5 = load ptr, ptr %3, align 8
  %6 = load ptr, ptr %4, align 8
  call void (ptr, ptr, ...) @_ZN12outputStream8print_crEPKcz(ptr noundef nonnull align 8 dereferenceable(56) %6, ptr noundef @.str.7)
  %7 = load ptr, ptr %4, align 8
  %8 = load i32, ptr @XGlobalPhase, align 4
  %9 = call noundef ptr @_Z20XGlobalPhaseToStringv()
  call void (ptr, ptr, ...) @_ZN12outputStream8print_crEPKcz(ptr noundef nonnull align 8 dereferenceable(56) %7, ptr noundef @.str.8, i32 noundef %8, ptr noundef %9)
  %10 = load ptr, ptr %4, align 8
  %11 = load i32, ptr @XGlobalSeqNum, align 4
  call void (ptr, ptr, ...) @_ZN12outputStream8print_crEPKcz(ptr noundef nonnull align 8 dereferenceable(56) %10, ptr noundef @.str.9, i32 noundef %11)
  %12 = load ptr, ptr %4, align 8
  %13 = load i64, ptr @XAddressOffsetMax, align 8
  %14 = call noundef i64 @_Z23byte_size_in_exact_unitm(i64 noundef %13)
  %15 = load i64, ptr @XAddressOffsetMax, align 8
  %16 = call noundef ptr @_Z24exact_unit_for_byte_sizem(i64 noundef %15)
  %17 = load i64, ptr @XAddressOffsetMax, align 8
  call void (ptr, ptr, ...) @_ZN12outputStream8print_crEPKcz(ptr noundef nonnull align 8 dereferenceable(56) %12, ptr noundef @.str.10, i64 noundef %14, ptr noundef %16, i64 noundef %17)
  %18 = load ptr, ptr %4, align 8
  call void (ptr, ptr, ...) @_ZN12outputStream8print_crEPKcz(ptr noundef nonnull align 8 dereferenceable(56) %18, ptr noundef @.str.11, i64 noundef 2)
  %19 = load ptr, ptr %4, align 8
  %20 = load i64, ptr @XPageSizeMedium, align 8
  %21 = udiv i64 %20, 1048576
  call void (ptr, ptr, ...) @_ZN12outputStream8print_crEPKcz(ptr noundef nonnull align 8 dereferenceable(56) %19, ptr noundef @.str.12, i64 noundef %21)
  %22 = load ptr, ptr %4, align 8
  call void @_ZN12outputStream2crEv(ptr noundef nonnull align 8 dereferenceable(56) %22)
  %23 = load ptr, ptr %4, align 8
  call void (ptr, ptr, ...) @_ZN12outputStream8print_crEPKcz(ptr noundef nonnull align 8 dereferenceable(56) %23, ptr noundef @.str.13)
  %24 = load ptr, ptr %4, align 8
  %25 = load i64, ptr @XAddressGoodMask, align 8
  call void (ptr, ptr, ...) @_ZN12outputStream8print_crEPKcz(ptr noundef nonnull align 8 dereferenceable(56) %24, ptr noundef @.str.14, i64 noundef %25)
  %26 = load ptr, ptr %4, align 8
  %27 = load i64, ptr @XAddressBadMask, align 8
  call void (ptr, ptr, ...) @_ZN12outputStream8print_crEPKcz(ptr noundef nonnull align 8 dereferenceable(56) %26, ptr noundef @.str.15, i64 noundef %27)
  %28 = load ptr, ptr %4, align 8
  %29 = load i64, ptr @XAddressWeakBadMask, align 8
  call void (ptr, ptr, ...) @_ZN12outputStream8print_crEPKcz(ptr noundef nonnull align 8 dereferenceable(56) %28, ptr noundef @.str.16, i64 noundef %29)
  %30 = load ptr, ptr %4, align 8
  %31 = load i64, ptr @XAddressMetadataMarked, align 8
  call void (ptr, ptr, ...) @_ZN12outputStream8print_crEPKcz(ptr noundef nonnull align 8 dereferenceable(56) %30, ptr noundef @.str.17, i64 noundef %31)
  %32 = load ptr, ptr %4, align 8
  %33 = load i64, ptr @XAddressMetadataRemapped, align 8
  call void (ptr, ptr, ...) @_ZN12outputStream8print_crEPKcz(ptr noundef nonnull align 8 dereferenceable(56) %32, ptr noundef @.str.18, i64 noundef %33)
  %34 = load ptr, ptr %4, align 8
  call void @_ZN12outputStream2crEv(ptr noundef nonnull align 8 dereferenceable(56) %34)
  %35 = load ptr, ptr %4, align 8
  call void @_ZNK13CollectedHeap14print_on_errorEP12outputStream(ptr noundef nonnull align 8 dereferenceable(104) %5, ptr noundef %35)
  ret void
}