; Function Attrs: mustprogress nounwind uwtable
define hidden void @_ZNK14XCollectedHeap14print_on_errorEP12outputStream(ptr noundef nonnull align 64 dereferenceable(4432) %0, ptr noundef nonnull %1) unnamed_addr #1 align 2 {
  tail call void (ptr, ptr, ...) @_ZN12outputStream8print_crEPKcz(ptr noundef nonnull align 8 dereferenceable(56) %1, ptr noundef nonnull @.str.7) #9
  %3 = load i32, ptr @XGlobalPhase, align 4
  %4 = tail call noundef ptr @_Z20XGlobalPhaseToStringv() #9
  tail call void (ptr, ptr, ...) @_ZN12outputStream8print_crEPKcz(ptr noundef nonnull align 8 dereferenceable(56) %1, ptr noundef nonnull @.str.8, i32 noundef %3, ptr noundef %4) #9
  %5 = load i32, ptr @XGlobalSeqNum, align 4
  tail call void (ptr, ptr, ...) @_ZN12outputStream8print_crEPKcz(ptr noundef nonnull align 8 dereferenceable(56) %1, ptr noundef nonnull @.str.9, i32 noundef %5) #9
  %6 = load i64, ptr @XAddressOffsetMax, align 8
  %7 = icmp ugt i64 %6, 1073741823
  %8 = and i64 %6, 1073741823
  %9 = icmp eq i64 %8, 0
  %or.cond.i = and i1 %7, %9
  br i1 %or.cond.i, label %_Z23byte_size_in_exact_unitm.exit, label %10

10:                                               ; preds = %2
  %11 = icmp ugt i64 %6, 1048575
  %12 = and i64 %6, 1048575
  %13 = icmp eq i64 %12, 0
  %or.cond14.i = and i1 %11, %13
  br i1 %or.cond14.i, label %.thread, label %16

.thread:                                          ; preds = %10
  %14 = lshr exact i64 %6, 20
  br label %_Z24exact_unit_for_byte_sizem.exit

_Z23byte_size_in_exact_unitm.exit:                ; preds = %2
  %15 = lshr exact i64 %6, 30
  br label %_Z24exact_unit_for_byte_sizem.exit

16:                                               ; preds = %10
  %17 = icmp ugt i64 %6, 1023
  %18 = and i64 %6, 1023
  %19 = icmp eq i64 %18, 0
  %or.cond16.i = and i1 %17, %19
  %20 = lshr exact i64 %6, 10
  %spec.select.i = select i1 %or.cond16.i, i64 %20, i64 %6
  %21 = icmp ugt i64 %6, 1023
  %22 = and i64 %6, 1023
  %23 = icmp eq i64 %22, 0
  %or.cond11.i = and i1 %21, %23
  %spec.select.i17 = select i1 %or.cond11.i, ptr @.str.28, ptr @.str.29
  br label %_Z24exact_unit_for_byte_sizem.exit

_Z24exact_unit_for_byte_sizem.exit:               ; preds = %.thread, %_Z23byte_size_in_exact_unitm.exit, %16
  %.0.i21 = phi i64 [ %15, %_Z23byte_size_in_exact_unitm.exit ], [ %spec.select.i, %16 ], [ %14, %.thread ]
  %.0.i18 = phi ptr [ @.str.26, %_Z23byte_size_in_exact_unitm.exit ], [ %spec.select.i17, %16 ], [ @.str.27, %.thread ]
  tail call void (ptr, ptr, ...) @_ZN12outputStream8print_crEPKcz(ptr noundef nonnull align 8 dereferenceable(56) %1, ptr noundef nonnull @.str.10, i64 noundef %.0.i21, ptr noundef nonnull %.0.i18, i64 noundef %6) #9
  tail call void (ptr, ptr, ...) @_ZN12outputStream8print_crEPKcz(ptr noundef nonnull align 8 dereferenceable(56) %1, ptr noundef nonnull @.str.11, i64 noundef 2) #9
  %24 = load i64, ptr @XPageSizeMedium, align 8
  %25 = lshr i64 %24, 20
  tail call void (ptr, ptr, ...) @_ZN12outputStream8print_crEPKcz(ptr noundef nonnull align 8 dereferenceable(56) %1, ptr noundef nonnull @.str.12, i64 noundef %25) #9
  tail call void @_ZN12outputStream2crEv(ptr noundef nonnull align 8 dereferenceable(56) %1) #9
  tail call void (ptr, ptr, ...) @_ZN12outputStream8print_crEPKcz(ptr noundef nonnull align 8 dereferenceable(56) %1, ptr noundef nonnull @.str.13) #9
  %26 = load i64, ptr @XAddressGoodMask, align 8
  tail call void (ptr, ptr, ...) @_ZN12outputStream8print_crEPKcz(ptr noundef nonnull align 8 dereferenceable(56) %1, ptr noundef nonnull @.str.14, i64 noundef %26) #9
  %27 = load i64, ptr @XAddressBadMask, align 8
  tail call void (ptr, ptr, ...) @_ZN12outputStream8print_crEPKcz(ptr noundef nonnull align 8 dereferenceable(56) %1, ptr noundef nonnull @.str.15, i64 noundef %27) #9
  %28 = load i64, ptr @XAddressWeakBadMask, align 8
  tail call void (ptr, ptr, ...) @_ZN12outputStream8print_crEPKcz(ptr noundef nonnull align 8 dereferenceable(56) %1, ptr noundef nonnull @.str.16, i64 noundef %28) #9
  %29 = load i64, ptr @XAddressMetadataMarked, align 8
  tail call void (ptr, ptr, ...) @_ZN12outputStream8print_crEPKcz(ptr noundef nonnull align 8 dereferenceable(56) %1, ptr noundef nonnull @.str.17, i64 noundef %29) #9
  %30 = load i64, ptr @XAddressMetadataRemapped, align 8
  tail call void (ptr, ptr, ...) @_ZN12outputStream8print_crEPKcz(ptr noundef nonnull align 8 dereferenceable(56) %1, ptr noundef nonnull @.str.18, i64 noundef %30) #9
  tail call void @_ZN12outputStream2crEv(ptr noundef nonnull align 8 dereferenceable(56) %1) #9
  tail call void @_ZNK13CollectedHeap14print_on_errorEP12outputStream(ptr noundef nonnull align 8 dereferenceable(104) %0, ptr noundef nonnull %1) #9
  ret void
}